target datalayout = "e-m:e-p270:32:32-p271:32:32-p272:64:64-i64:64-i128:128-f80:128-n8:16:32:64-S128"
target triple = "x86_64-pc-linux-gnu"

%"class.std::__cxx11::basic_string" = type { %"struct.std::__cxx11::basic_string<char>::_Alloc_hider", i64, %union.anon }
%"struct.std::__cxx11::basic_string<char>::_Alloc_hider" = type { ptr }
%union.anon = type { i64, [8 x i8] }
%"class.std::allocator.10" = type { i8 }

@.str.1 = private unnamed_addr constant [111 x i8] c"generated/home/dtcxzyw/WorkSpace/Projects/compilers/llvm-opt-benchmark/bench/faiss/faiss/faiss/clone_index.cpp\00", align 1
@_ZTIN5faiss14FaissExceptionE = external constant ptr
@_ZTIN5faiss9IndexHNSWE = external constant ptr
@_ZTIN5faiss15IndexHNSW2LevelE = external constant ptr
@_ZTIN5faiss13IndexHNSWFlatE = linkonce_odr constant { ptr, ptr, ptr } { ptr getelementptr inbounds (ptr, ptr @_ZTVN10__cxxabiv120__si_class_type_infoE, i64 2), ptr @_ZTSN5faiss13IndexHNSWFlatE, ptr @_ZTIN5faiss9IndexHNSWE }, comdat, align 8
@_ZTIN5faiss11IndexHNSWPQE = external constant ptr
@_ZTIN5faiss11IndexHNSWSQE = linkonce_odr constant { ptr, ptr, ptr } { ptr getelementptr inbounds (ptr, ptr @_ZTVN10__cxxabiv120__si_class_type_infoE, i64 2), ptr @_ZTSN5faiss11IndexHNSWSQE, ptr @_ZTIN5faiss9IndexHNSWE }, comdat, align 8
@.str.6 = private unnamed_addr constant [47 x i8] c"clone not supported for this type of IndexHNSW\00", align 1
@__PRETTY_FUNCTION__._ZN5faiss15clone_IndexHNSWEPKNS_9IndexHNSWE = private unnamed_addr constant [53 x i8] c"IndexHNSW *faiss::clone_IndexHNSW(const IndexHNSW *)\00", align 1
@_ZTVN5faiss15IndexHNSW2LevelE = external unnamed_addr constant { [24 x ptr] }, align 8
@_ZTVN5faiss11IndexHNSWPQE = external unnamed_addr constant { [24 x ptr] }, align 8

; Function Attrs: mustprogress uwtable
define linkonce_odr void @_ZN5faiss11IndexHNSWSQC2ERKS0_(ptr noundef nonnull align 8 dereferenceable(5208) %0, ptr noundef nonnull align 8 dereferenceable(5208) %1) unnamed_addr #0 comdat align 2 {
  %3 = alloca ptr, align 8
  %4 = alloca ptr, align 8
  store ptr %0, ptr %3, align 8
  store ptr %1, ptr %4, align 8
  %5 = load ptr, ptr %3, align 8
  %6 = load ptr, ptr %4, align 8
  call void @_ZN5faiss9IndexHNSWC2ERKS0_(ptr noundef nonnull align 8 dereferenceable(5208) %5, ptr noundef nonnull align 8 dereferenceable(5208) %6)
  store ptr getelementptr inbounds ({ [24 x ptr] }, ptr @_ZTVN5faiss11IndexHNSWSQE, i32 0, i32 0, i32 2), ptr %5, align 8
  ret void
}

; Function Attrs: mustprogress uwtable
define linkonce_odr void @_ZN5faiss11IndexHNSWPQC2ERKS0_(ptr noundef nonnull align 8 dereferenceable(5208) %0, ptr noundef nonnull align 8 dereferenceable(5208) %1) unnamed_addr #0 comdat align 2 {
  %3 = alloca ptr, align 8
  %4 = alloca ptr, align 8
  store ptr %0, ptr %3, align 8
  store ptr %1, ptr %4, align 8
  %5 = load ptr, ptr %3, align 8
  %6 = load ptr, ptr %4, align 8
  call void @_ZN5faiss9IndexHNSWC2ERKS0_(ptr noundef nonnull align 8 dereferenceable(5208) %5, ptr noundef nonnull align 8 dereferenceable(5208) %6)
  store ptr getelementptr inbounds ({ [24 x ptr] }, ptr @_ZTVN5faiss11IndexHNSWPQE, i32 0, i32 0, i32 2), ptr %5, align 8
  ret void
}

; Function Attrs: mustprogress uwtable
define linkonce_odr void @_ZN5faiss13IndexHNSWFlatC2ERKS0_(ptr noundef nonnull align 8 dereferenceable(5208) %0, ptr noundef nonnull align 8 dereferenceable(5208) %1) unnamed_addr #0 comdat align 2 {
  %3 = alloca ptr, align 8
  %4 = alloca ptr, align 8
  store ptr %0, ptr %3, align 8
  store ptr %1, ptr %4, align 8
  %5 = load ptr, ptr %3, align 8
  %6 = load ptr, ptr %4, align 8
  call void @_ZN5faiss9IndexHNSWC2ERKS0_(ptr noundef nonnull align 8 dereferenceable(5208) %5, ptr noundef nonnull align 8 dereferenceable(5208) %6)
  store ptr getelementptr inbounds ({ [24 x ptr] }, ptr @_ZTVN5faiss13IndexHNSWFlatE, i32 0, i32 0, i32 2), ptr %5, align 8
  ret void
}

; Function Attrs: mustprogress uwtable
define linkonce_odr void @_ZN5faiss15IndexHNSW2LevelC2ERKS0_(ptr noundef nonnull align 8 dereferenceable(5208) %0, ptr noundef nonnull align 8 dereferenceable(5208) %1) unnamed_addr #0 comdat align 2 {
  %3 = alloca ptr, align 8
  %4 = alloca ptr, align 8
  store ptr %0, ptr %3, align 8
  store ptr %1, ptr %4, align 8
  %5 = load ptr, ptr %3, align 8
  %6 = load ptr, ptr %4, align 8
  call void @_ZN5faiss9IndexHNSWC2ERKS0_(ptr noundef nonnull align 8 dereferenceable(5208) %5, ptr noundef nonnull align 8 dereferenceable(5208) %6)
  store ptr getelementptr inbounds ({ [24 x ptr] }, ptr @_ZTVN5faiss15IndexHNSW2LevelE, i32 0, i32 0, i32 2), ptr %5, align 8
  ret void
}

; Function Attrs: mustprogress uwtable
define noundef ptr @_ZN5faiss15clone_IndexHNSWEPKNS_9IndexHNSWE(ptr noundef %0) #0 personality ptr @__gxx_personality_v0 {
  %2 = alloca ptr, align 8
  %3 = alloca ptr, align 8
  %4 = alloca ptr, align 8
  %5 = alloca ptr, align 8
  %6 = alloca i32, align 4
  %7 = alloca ptr, align 8
  %8 = alloca ptr, align 8
  %9 = alloca ptr, align 8
  %10 = alloca ptr, align 8
  %11 = alloca %"class.std::__cxx11::basic_string", align 8
  %12 = alloca %"class.std::allocator.10", align 1
  %13 = alloca i1, align 1
  store ptr %0, ptr %3, align 8
  %14 = load ptr, ptr %3, align 8
  %15 = icmp eq ptr %14, null
  br i1 %15, label %18, label %16

16:                                               ; preds = %1
  %17 = call ptr @__dynamic_cast(ptr %14, ptr @_ZTIN5faiss9IndexHNSWE, ptr @_ZTIN5faiss15IndexHNSW2LevelE, i64 0) #5
  br label %19

18:                                               ; preds = %1
  br label %19

19:                                               ; preds = %18, %16
  %20 = phi ptr [ %17, %16 ], [ null, %18 ]
  store ptr %20, ptr %4, align 8
  %21 = load ptr, ptr %4, align 8
  %22 = icmp ne ptr %21, null
  br i1 %22, label %23, label %31

23:                                               ; preds = %19
  %24 = call noalias noundef nonnull ptr @_Znwm(i64 noundef 5208) #16
  %25 = load ptr, ptr %4, align 8
  invoke void @_ZN5faiss15IndexHNSW2LevelC2ERKS0_(ptr noundef nonnull align 8 dereferenceable(5208) %24, ptr noundef nonnull align 8 dereferenceable(5208) %25)
          to label %26 unwind label %27

26:                                               ; preds = %23
  store ptr %24, ptr %2, align 8
  br label %120

27:                                               ; preds = %23
  %28 = landingpad { ptr, i32 }
          cleanup
  %29 = extractvalue { ptr, i32 } %28, 0
  store ptr %29, ptr %5, align 8
  %30 = extractvalue { ptr, i32 } %28, 1
  store i32 %30, ptr %6, align 4
  call void @_ZdlPv(ptr noundef %24) #17
  br label %122

31:                                               ; preds = %19
  %32 = load ptr, ptr %3, align 8
  %33 = icmp eq ptr %32, null
  br i1 %33, label %36, label %34

34:                                               ; preds = %31
  %35 = call ptr @__dynamic_cast(ptr %32, ptr @_ZTIN5faiss9IndexHNSWE, ptr @_ZTIN5faiss13IndexHNSWFlatE, i64 0) #5
  br label %37

36:                                               ; preds = %31
  br label %37

37:                                               ; preds = %36, %34
  %38 = phi ptr [ %35, %34 ], [ null, %36 ]
  store ptr %38, ptr %7, align 8
  %39 = load ptr, ptr %7, align 8
  %40 = icmp ne ptr %39, null
  br i1 %40, label %41, label %49

41:                                               ; preds = %37
  %42 = call noalias noundef nonnull ptr @_Znwm(i64 noundef 5208) #16
  %43 = load ptr, ptr %7, align 8
  invoke void @_ZN5faiss13IndexHNSWFlatC2ERKS0_(ptr noundef nonnull align 8 dereferenceable(5208) %42, ptr noundef nonnull align 8 dereferenceable(5208) %43)
          to label %44 unwind label %45

44:                                               ; preds = %41
  store ptr %42, ptr %2, align 8
  br label %120

45:                                               ; preds = %41
  %46 = landingpad { ptr, i32 }
          cleanup
  %47 = extractvalue { ptr, i32 } %46, 0
  store ptr %47, ptr %5, align 8
  %48 = extractvalue { ptr, i32 } %46, 1
  store i32 %48, ptr %6, align 4
  call void @_ZdlPv(ptr noundef %42) #17
  br label %122

49:                                               ; preds = %37
  %50 = load ptr, ptr %3, align 8
  %51 = icmp eq ptr %50, null
  br i1 %51, label %54, label %52

52:                                               ; preds = %49
  %53 = call ptr @__dynamic_cast(ptr %50, ptr @_ZTIN5faiss9IndexHNSWE, ptr @_ZTIN5faiss11IndexHNSWPQE, i64 0) #5
  br label %55

54:                                               ; preds = %49
  br label %55

55:                                               ; preds = %54, %52
  %56 = phi ptr [ %53, %52 ], [ null, %54 ]
  store ptr %56, ptr %8, align 8
  %57 = load ptr, ptr %8, align 8
  %58 = icmp ne ptr %57, null
  br i1 %58, label %59, label %67

59:                                               ; preds = %55
  %60 = call noalias noundef nonnull ptr @_Znwm(i64 noundef 5208) #16
  %61 = load ptr, ptr %8, align 8
  invoke void @_ZN5faiss11IndexHNSWPQC2ERKS0_(ptr noundef nonnull align 8 dereferenceable(5208) %60, ptr noundef nonnull align 8 dereferenceable(5208) %61)
          to label %62 unwind label %63

62:                                               ; preds = %59
  store ptr %60, ptr %2, align 8
  br label %120

63:                                               ; preds = %59
  %64 = landingpad { ptr, i32 }
          cleanup
  %65 = extractvalue { ptr, i32 } %64, 0
  store ptr %65, ptr %5, align 8
  %66 = extractvalue { ptr, i32 } %64, 1
  store i32 %66, ptr %6, align 4
  call void @_ZdlPv(ptr noundef %60) #17
  br label %122

67:                                               ; preds = %55
  %68 = load ptr, ptr %3, align 8
  %69 = icmp eq ptr %68, null
  br i1 %69, label %72, label %70

70:                                               ; preds = %67
  %71 = call ptr @__dynamic_cast(ptr %68, ptr @_ZTIN5faiss9IndexHNSWE, ptr @_ZTIN5faiss11IndexHNSWSQE, i64 0) #5
  br label %73

72:                                               ; preds = %67
  br label %73

73:                                               ; preds = %72, %70
  %74 = phi ptr [ %71, %70 ], [ null, %72 ]
  store ptr %74, ptr %9, align 8
  %75 = load ptr, ptr %9, align 8
  %76 = icmp ne ptr %75, null
  br i1 %76, label %77, label %85

77:                                               ; preds = %73
  %78 = call noalias noundef nonnull ptr @_Znwm(i64 noundef 5208) #16
  %79 = load ptr, ptr %9, align 8
  invoke void @_ZN5faiss11IndexHNSWSQC2ERKS0_(ptr noundef nonnull align 8 dereferenceable(5208) %78, ptr noundef nonnull align 8 dereferenceable(5208) %79)
          to label %80 unwind label %81

80:                                               ; preds = %77
  store ptr %78, ptr %2, align 8
  br label %120

81:                                               ; preds = %77
  %82 = landingpad { ptr, i32 }
          cleanup
  %83 = extractvalue { ptr, i32 } %82, 0
  store ptr %83, ptr %5, align 8
  %84 = extractvalue { ptr, i32 } %82, 1
  store i32 %84, ptr %6, align 4
  call void @_ZdlPv(ptr noundef %78) #17
  br label %122

85:                                               ; preds = %73
  %86 = load ptr, ptr %3, align 8
  store ptr %86, ptr %10, align 8
  %87 = load ptr, ptr %10, align 8
  %88 = icmp ne ptr %87, null
  br i1 %88, label %89, label %97

89:                                               ; preds = %85
  %90 = call noalias noundef nonnull ptr @_Znwm(i64 noundef 5208) #16
  %91 = load ptr, ptr %10, align 8
  invoke void @_ZN5faiss9IndexHNSWC2ERKS0_(ptr noundef nonnull align 8 dereferenceable(5208) %90, ptr noundef nonnull align 8 dereferenceable(5208) %91)
          to label %92 unwind label %93

92:                                               ; preds = %89
  store ptr %90, ptr %2, align 8
  br label %120

93:                                               ; preds = %89
  %94 = landingpad { ptr, i32 }
          cleanup
  %95 = extractvalue { ptr, i32 } %94, 0
  store ptr %95, ptr %5, align 8
  %96 = extractvalue { ptr, i32 } %94, 1
  store i32 %96, ptr %6, align 4
  call void @_ZdlPv(ptr noundef %90) #17
  br label %122

97:                                               ; preds = %85
  br label %98

98:                                               ; preds = %97
  store i1 true, ptr %13, align 1
  %99 = call ptr @__cxa_allocate_exception(i64 40) #5
  call void @_ZNSaIcEC1Ev(ptr noundef nonnull align 1 dereferenceable(1) %12) #5
  invoke void @_ZNSt7__cxx1112basic_stringIcSt11char_traitsIcESaIcEEC2IS3_EEPKcRKS3_(ptr noundef nonnull align 8 dereferenceable(32) %11, ptr noundef @.str.6, ptr noundef nonnull align 1 dereferenceable(1) %12)
          to label %100 unwind label %102

100:                                              ; preds = %98
  invoke void @_ZN5faiss14FaissExceptionC1ERKNSt7__cxx1112basic_stringIcSt11char_traitsIcESaIcEEEPKcSA_i(ptr noundef nonnull align 8 dereferenceable(40) %99, ptr noundef nonnull align 8 dereferenceable(32) %11, ptr noundef @__PRETTY_FUNCTION__._ZN5faiss15clone_IndexHNSWEPKNS_9IndexHNSWE, ptr noundef @.str.1, i32 noundef 130)
          to label %101 unwind label %106

101:                                              ; preds = %100
  store i1 false, ptr %13, align 1
  invoke void @__cxa_throw(ptr %99, ptr @_ZTIN5faiss14FaissExceptionE, ptr @_ZN5faiss14FaissExceptionD2Ev) #18
          to label %127 unwind label %106

102:                                              ; preds = %98
  %103 = landingpad { ptr, i32 }
          cleanup
  %104 = extractvalue { ptr, i32 } %103, 0
  store ptr %104, ptr %5, align 8
  %105 = extractvalue { ptr, i32 } %103, 1
  store i32 %105, ptr %6, align 4
  br label %110

106:                                              ; preds = %101, %100
  %107 = landingpad { ptr, i32 }
          cleanup
  %108 = extractvalue { ptr, i32 } %107, 0
  store ptr %108, ptr %5, align 8
  %109 = extractvalue { ptr, i32 } %107, 1
  store i32 %109, ptr %6, align 4
  call void @_ZNSt7__cxx1112basic_stringIcSt11char_traitsIcESaIcEED1Ev(ptr noundef nonnull align 8 dereferenceable(32) %11) #5
  br label %110

110:                                              ; preds = %106, %102
  call void @_ZNSaIcED1Ev(ptr noundef nonnull align 1 dereferenceable(1) %12) #5
  %111 = load i1, ptr %13, align 1
  br i1 %111, label %112, label %113

112:                                              ; preds = %110
  call void @__cxa_free_exception(ptr %99) #5
  br label %113

113:                                              ; preds = %112, %110
  br label %122

114:                                              ; No predecessors!
  br label %115

115:                                              ; preds = %114
  br label %116

116:                                              ; preds = %115
  br label %117

117:                                              ; preds = %116
  br label %118

118:                                              ; preds = %117
  br label %119

119:                                              ; preds = %118
  call void @llvm.trap()
  unreachable

120:                                              ; preds = %92, %80, %62, %44, %26
  %121 = load ptr, ptr %2, align 8
  ret ptr %121

122:                                              ; preds = %113, %93, %81, %63, %45, %27
  %123 = load ptr, ptr %5, align 8
  %124 = load i32, ptr %6, align 4
  %125 = insertvalue { ptr, i32 } poison, ptr %123, 0
  %126 = insertvalue { ptr, i32 } %125, i32 %124, 1
  resume { ptr, i32 } %126

127:                                              ; preds = %101
  unreachable
}