; Function Attrs: mustprogress uwtable
define noundef nonnull ptr @_ZN5faiss15clone_IndexHNSWEPKNS_9IndexHNSWE(ptr noundef %0) local_unnamed_addr #0 personality ptr @__gxx_personality_v0 {
  %2 = alloca %"class.std::__cxx11::basic_string", align 8
  %3 = alloca %"class.std::allocator.10", align 1
  %4 = icmp eq ptr %0, null
  br i1 %4, label %52, label %5

5:                                                ; preds = %1
  %6 = tail call ptr @__dynamic_cast(ptr nonnull %0, ptr nonnull @_ZTIN5faiss9IndexHNSWE, ptr nonnull @_ZTIN5faiss15IndexHNSW2LevelE, i64 0) #20
  %.not = icmp eq ptr %6, null
  br i1 %.not, label %16, label %7

7:                                                ; preds = %5
  %8 = tail call noalias noundef nonnull dereferenceable(5208) ptr @_Znwm(i64 noundef 5208) #21
  %9 = getelementptr inbounds i8, ptr %8, i64 8
  %10 = getelementptr inbounds i8, ptr %6, i64 8
  tail call void @llvm.memcpy.p0.p0.i64(ptr noundef nonnull align 8 dereferenceable(28) %9, ptr noundef nonnull align 8 dereferenceable(28) %10, i64 28, i1 false)
  store ptr getelementptr inbounds ({ [24 x ptr] }, ptr @_ZTVN5faiss9IndexHNSWE, i64 0, i32 0, i64 2), ptr %8, align 8
  %11 = getelementptr inbounds i8, ptr %8, i64 40
  %12 = getelementptr inbounds i8, ptr %6, i64 40
  invoke void @_ZN5faiss4HNSWC2ERKS0_(ptr noundef nonnull align 8 dereferenceable(5149) %11, ptr noundef nonnull align 8 dereferenceable(5149) %12)
          to label %_ZN5faiss15IndexHNSW2LevelC2ERKS0_.exit unwind label %.body

.body:                                            ; preds = %7
  %13 = landingpad { ptr, i32 }
          cleanup
  tail call void @_ZN5faiss5IndexD2Ev(ptr noundef nonnull align 8 dereferenceable(36) %8) #20
  tail call void @_ZdlPv(ptr noundef nonnull %8) #23
  br label %61

_ZN5faiss15IndexHNSW2LevelC2ERKS0_.exit:          ; preds = %7
  %14 = getelementptr inbounds i8, ptr %8, i64 5192
  %15 = getelementptr inbounds i8, ptr %6, i64 5192
  tail call void @llvm.memcpy.p0.p0.i64(ptr noundef nonnull align 8 dereferenceable(16) %14, ptr noundef nonnull align 8 dereferenceable(16) %15, i64 16, i1 false)
  store ptr getelementptr inbounds ({ [24 x ptr] }, ptr @_ZTVN5faiss15IndexHNSW2LevelE, i64 0, i32 0, i64 2), ptr %8, align 8
  br label %60

16:                                               ; preds = %5
  %17 = tail call ptr @__dynamic_cast(ptr nonnull %0, ptr nonnull @_ZTIN5faiss9IndexHNSWE, ptr nonnull @_ZTIN5faiss13IndexHNSWFlatE, i64 0) #20
  %.not29 = icmp eq ptr %17, null
  br i1 %.not29, label %27, label %18

18:                                               ; preds = %16
  %19 = tail call noalias noundef nonnull dereferenceable(5208) ptr @_Znwm(i64 noundef 5208) #21
  %20 = getelementptr inbounds i8, ptr %19, i64 8
  %21 = getelementptr inbounds i8, ptr %17, i64 8
  tail call void @llvm.memcpy.p0.p0.i64(ptr noundef nonnull align 8 dereferenceable(28) %20, ptr noundef nonnull align 8 dereferenceable(28) %21, i64 28, i1 false)
  store ptr getelementptr inbounds ({ [24 x ptr] }, ptr @_ZTVN5faiss9IndexHNSWE, i64 0, i32 0, i64 2), ptr %19, align 8
  %22 = getelementptr inbounds i8, ptr %19, i64 40
  %23 = getelementptr inbounds i8, ptr %17, i64 40
  invoke void @_ZN5faiss4HNSWC2ERKS0_(ptr noundef nonnull align 8 dereferenceable(5149) %22, ptr noundef nonnull align 8 dereferenceable(5149) %23)
          to label %_ZN5faiss13IndexHNSWFlatC2ERKS0_.exit unwind label %.body36

.body36:                                          ; preds = %18
  %24 = landingpad { ptr, i32 }
          cleanup
  tail call void @_ZN5faiss5IndexD2Ev(ptr noundef nonnull align 8 dereferenceable(36) %19) #20
  tail call void @_ZdlPv(ptr noundef nonnull %19) #23
  br label %61

_ZN5faiss13IndexHNSWFlatC2ERKS0_.exit:            ; preds = %18
  %25 = getelementptr inbounds i8, ptr %19, i64 5192
  %26 = getelementptr inbounds i8, ptr %17, i64 5192
  tail call void @llvm.memcpy.p0.p0.i64(ptr noundef nonnull align 8 dereferenceable(16) %25, ptr noundef nonnull align 8 dereferenceable(16) %26, i64 16, i1 false)
  store ptr getelementptr inbounds ({ [24 x ptr] }, ptr @_ZTVN5faiss13IndexHNSWFlatE, i64 0, i32 0, i64 2), ptr %19, align 8
  br label %60

27:                                               ; preds = %16
  %28 = tail call ptr @__dynamic_cast(ptr nonnull %0, ptr nonnull @_ZTIN5faiss9IndexHNSWE, ptr nonnull @_ZTIN5faiss11IndexHNSWPQE, i64 0) #20
  %.not30 = icmp eq ptr %28, null
  br i1 %.not30, label %38, label %29

29:                                               ; preds = %27
  %30 = tail call noalias noundef nonnull dereferenceable(5208) ptr @_Znwm(i64 noundef 5208) #21
  %31 = getelementptr inbounds i8, ptr %30, i64 8
  %32 = getelementptr inbounds i8, ptr %28, i64 8
  tail call void @llvm.memcpy.p0.p0.i64(ptr noundef nonnull align 8 dereferenceable(28) %31, ptr noundef nonnull align 8 dereferenceable(28) %32, i64 28, i1 false)
  store ptr getelementptr inbounds ({ [24 x ptr] }, ptr @_ZTVN5faiss9IndexHNSWE, i64 0, i32 0, i64 2), ptr %30, align 8
  %33 = getelementptr inbounds i8, ptr %30, i64 40
  %34 = getelementptr inbounds i8, ptr %28, i64 40
  invoke void @_ZN5faiss4HNSWC2ERKS0_(ptr noundef nonnull align 8 dereferenceable(5149) %33, ptr noundef nonnull align 8 dereferenceable(5149) %34)
          to label %_ZN5faiss11IndexHNSWPQC2ERKS0_.exit unwind label %.body38

.body38:                                          ; preds = %29
  %35 = landingpad { ptr, i32 }
          cleanup
  tail call void @_ZN5faiss5IndexD2Ev(ptr noundef nonnull align 8 dereferenceable(36) %30) #20
  tail call void @_ZdlPv(ptr noundef nonnull %30) #23
  br label %61

_ZN5faiss11IndexHNSWPQC2ERKS0_.exit:              ; preds = %29
  %36 = getelementptr inbounds i8, ptr %30, i64 5192
  %37 = getelementptr inbounds i8, ptr %28, i64 5192
  tail call void @llvm.memcpy.p0.p0.i64(ptr noundef nonnull align 8 dereferenceable(16) %36, ptr noundef nonnull align 8 dereferenceable(16) %37, i64 16, i1 false)
  store ptr getelementptr inbounds ({ [24 x ptr] }, ptr @_ZTVN5faiss11IndexHNSWPQE, i64 0, i32 0, i64 2), ptr %30, align 8
  br label %60

38:                                               ; preds = %27
  %39 = tail call ptr @__dynamic_cast(ptr nonnull %0, ptr nonnull @_ZTIN5faiss9IndexHNSWE, ptr nonnull @_ZTIN5faiss11IndexHNSWSQE, i64 0) #20
  %.not31 = icmp eq ptr %39, null
  %40 = tail call noalias noundef nonnull dereferenceable(5208) ptr @_Znwm(i64 noundef 5208) #21
  br i1 %.not31, label %49, label %41

41:                                               ; preds = %38
  %42 = getelementptr inbounds i8, ptr %40, i64 8
  %43 = getelementptr inbounds i8, ptr %39, i64 8
  tail call void @llvm.memcpy.p0.p0.i64(ptr noundef nonnull align 8 dereferenceable(28) %42, ptr noundef nonnull align 8 dereferenceable(28) %43, i64 28, i1 false)
  store ptr getelementptr inbounds ({ [24 x ptr] }, ptr @_ZTVN5faiss9IndexHNSWE, i64 0, i32 0, i64 2), ptr %40, align 8
  %44 = getelementptr inbounds i8, ptr %40, i64 40
  %45 = getelementptr inbounds i8, ptr %39, i64 40
  invoke void @_ZN5faiss4HNSWC2ERKS0_(ptr noundef nonnull align 8 dereferenceable(5149) %44, ptr noundef nonnull align 8 dereferenceable(5149) %45)
          to label %_ZN5faiss11IndexHNSWSQC2ERKS0_.exit unwind label %.body40

.body40:                                          ; preds = %41
  %46 = landingpad { ptr, i32 }
          cleanup
  tail call void @_ZN5faiss5IndexD2Ev(ptr noundef nonnull align 8 dereferenceable(36) %40) #20
  tail call void @_ZdlPv(ptr noundef nonnull %40) #23
  br label %61

_ZN5faiss11IndexHNSWSQC2ERKS0_.exit:              ; preds = %41
  %47 = getelementptr inbounds i8, ptr %40, i64 5192
  %48 = getelementptr inbounds i8, ptr %39, i64 5192
  tail call void @llvm.memcpy.p0.p0.i64(ptr noundef nonnull align 8 dereferenceable(16) %47, ptr noundef nonnull align 8 dereferenceable(16) %48, i64 16, i1 false)
  store ptr getelementptr inbounds ({ [24 x ptr] }, ptr @_ZTVN5faiss11IndexHNSWSQE, i64 0, i32 0, i64 2), ptr %40, align 8
  br label %60

49:                                               ; preds = %38
  invoke void @_ZN5faiss9IndexHNSWC2ERKS0_(ptr noundef nonnull align 8 dereferenceable(5208) %40, ptr noundef nonnull align 8 dereferenceable(5208) %0)
          to label %60 unwind label %50

50:                                               ; preds = %49
  %51 = landingpad { ptr, i32 }
          cleanup
  tail call void @_ZdlPv(ptr noundef nonnull %40) #23
  br label %61

52:                                               ; preds = %1
  %53 = tail call ptr @__cxa_allocate_exception(i64 40) #20
  call void @_ZNSaIcEC1Ev(ptr noundef nonnull align 1 dereferenceable(1) %3) #20
  invoke void @_ZNSt7__cxx1112basic_stringIcSt11char_traitsIcESaIcEEC2IS3_EEPKcRKS3_(ptr noundef nonnull align 8 dereferenceable(32) %2, ptr noundef nonnull @.str.6, ptr noundef nonnull align 1 dereferenceable(1) %3)
          to label %54 unwind label %.thread53

54:                                               ; preds = %52
  invoke void @_ZN5faiss14FaissExceptionC1ERKNSt7__cxx1112basic_stringIcSt11char_traitsIcESaIcEEEPKcSA_i(ptr noundef nonnull align 8 dereferenceable(40) %53, ptr noundef nonnull align 8 dereferenceable(32) %2, ptr noundef nonnull @__PRETTY_FUNCTION__._ZN5faiss15clone_IndexHNSWEPKNS_9IndexHNSWE, ptr noundef nonnull @.str.1, i32 noundef 130)
          to label %55 unwind label %57

55:                                               ; preds = %54
  invoke void @__cxa_throw(ptr nonnull %53, ptr nonnull @_ZTIN5faiss14FaissExceptionE, ptr nonnull @_ZN5faiss14FaissExceptionD2Ev) #22
          to label %62 unwind label %57

.thread53:                                        ; preds = %52
  %56 = landingpad { ptr, i32 }
          cleanup
  call void @_ZNSaIcED1Ev(ptr noundef nonnull align 1 dereferenceable(1) %3) #20
  br label %59

57:                                               ; preds = %54, %55
  %.0 = phi i1 [ false, %55 ], [ true, %54 ]
  %58 = landingpad { ptr, i32 }
          cleanup
  call void @_ZNSt7__cxx1112basic_stringIcSt11char_traitsIcESaIcEED1Ev(ptr noundef nonnull align 8 dereferenceable(32) %2) #20
  call void @_ZNSaIcED1Ev(ptr noundef nonnull align 1 dereferenceable(1) %3) #20
  br i1 %.0, label %59, label %61

59:                                               ; preds = %.thread53, %57
  %.pn56 = phi { ptr, i32 } [ %56, %.thread53 ], [ %58, %57 ]
  call void @__cxa_free_exception(ptr %53) #20
  br label %61

60:                                               ; preds = %_ZN5faiss11IndexHNSWSQC2ERKS0_.exit, %_ZN5faiss11IndexHNSWPQC2ERKS0_.exit, %_ZN5faiss13IndexHNSWFlatC2ERKS0_.exit, %_ZN5faiss15IndexHNSW2LevelC2ERKS0_.exit, %49
  %.018 = phi ptr [ %8, %_ZN5faiss15IndexHNSW2LevelC2ERKS0_.exit ], [ %19, %_ZN5faiss13IndexHNSWFlatC2ERKS0_.exit ], [ %30, %_ZN5faiss11IndexHNSWPQC2ERKS0_.exit ], [ %40, %_ZN5faiss11IndexHNSWSQC2ERKS0_.exit ], [ %40, %49 ]
  ret ptr %.018

61:                                               ; preds = %57, %59, %50, %.body40, %.body38, %.body36, %.body
  %.pn34 = phi { ptr, i32 } [ %13, %.body ], [ %24, %.body36 ], [ %35, %.body38 ], [ %46, %.body40 ], [ %51, %50 ], [ %.pn56, %59 ], [ %58, %57 ]
  resume { ptr, i32 } %.pn34

62:                                               ; preds = %55
  unreachable
}